target datalayout = "e-m:e-p270:32:32-p271:32:32-p272:64:64-i64:64-i128:128-f80:128-n8:16:32:64-S128"
target triple = "x86_64-pc-linux-gnu"

@proto_register_ircomm.ett = internal global [2 x ptr] [ptr @ett_ircomm, ptr @ett_ircomm_ctrl], align 16
@.str.10 = private unnamed_addr constant [16 x i8] c"IrCOMM Protocol\00", align 1
@.str.11 = private unnamed_addr constant [7 x i8] c"IrCOMM\00", align 1
@.str.12 = private unnamed_addr constant [7 x i8] c"ircomm\00", align 1
@proto_ircomm = internal global i32 0, align 4
@.str.13 = private unnamed_addr constant [11 x i8] c"ircomm_raw\00", align 1
@ircomm_raw_handle = internal global ptr null, align 8
@.str.14 = private unnamed_addr constant [14 x i8] c"ircomm_cooked\00", align 1
@ircomm_cooked_handle = internal global ptr null, align 8
@ett_param = internal global [1024 x i32] zeroinitializer, align 16

; Function Attrs: null_pointer_is_valid sspstrong uwtable
define hidden void @proto_register_ircomm() #0 {
  %1 = alloca i32, align 4
  %2 = alloca [1024 x ptr], align 16
  call void @llvm.lifetime.start.p0(i64 4, ptr %1) #4
  call void @llvm.lifetime.start.p0(i64 8192, ptr %2) #4
  %3 = call i32 @proto_register_protocol(ptr noundef @.str.10, ptr noundef @.str.11, ptr noundef @.str.12)
  store i32 %3, ptr @proto_ircomm, align 4
  %4 = load i32, ptr @proto_ircomm, align 4
  %5 = call ptr @register_dissector(ptr noundef @.str.13, ptr noundef @dissect_raw_ircomm, i32 noundef %4)
  store ptr %5, ptr @ircomm_raw_handle, align 8
  %6 = load i32, ptr @proto_ircomm, align 4
  %7 = call ptr @register_dissector(ptr noundef @.str.14, ptr noundef @dissect_cooked_ircomm, i32 noundef %6)
  store ptr %7, ptr @ircomm_cooked_handle, align 8
  %8 = load i32, ptr @proto_ircomm, align 4
  call void @proto_register_field_array(i32 noundef %8, ptr noundef @proto_register_ircomm.hf_ircomm, i32 noundef 3)
  call void @proto_register_subtree_array(ptr noundef @proto_register_ircomm.ett, i32 noundef 2)
  store i32 0, ptr %1, align 4
  br label %9

9:                                                ; preds = %19, %0
  %10 = load i32, ptr %1, align 4
  %11 = icmp ult i32 %10, 1024
  br i1 %11, label %12, label %22

12:                                               ; preds = %9
  %13 = load i32, ptr %1, align 4
  %14 = zext i32 %13 to i64
  %15 = getelementptr [1024 x i32], ptr @ett_param, i64 0, i64 %14
  %16 = load i32, ptr %1, align 4
  %17 = zext i32 %16 to i64
  %18 = getelementptr [1024 x ptr], ptr %2, i64 0, i64 %17
  store ptr %15, ptr %18, align 8
  br label %19

19:                                               ; preds = %12
  %20 = load i32, ptr %1, align 4
  %21 = add i32 %20, 1
  store i32 %21, ptr %1, align 4
  br label %9, !llvm.loop !8

22:                                               ; preds = %9
  %23 = getelementptr inbounds [1024 x ptr], ptr %2, i64 0, i64 0
  call void @proto_register_subtree_array(ptr noundef %23, i32 noundef 1024)
  call void @llvm.lifetime.end.p0(i64 8192, ptr %2) #4
  call void @llvm.lifetime.end.p0(i64 4, ptr %1) #4
  ret void
}