; Function Attrs: null_pointer_is_valid sspstrong uwtable
define hidden void @proto_register_ircomm() local_unnamed_addr #0 {
  %1 = alloca [1024 x ptr], align 16
  call void @llvm.lifetime.start.p0(i64 8192, ptr nonnull %1) #4
  %2 = tail call i32 @proto_register_protocol(ptr noundef nonnull @.str.10, ptr noundef nonnull @.str.11, ptr noundef nonnull @.str.12)
  store i32 %2, ptr @proto_ircomm, align 4
  %3 = tail call ptr @register_dissector(ptr noundef nonnull @.str.13, ptr noundef nonnull @dissect_raw_ircomm, i32 noundef %2)
  store ptr %3, ptr @ircomm_raw_handle, align 8
  %4 = load i32, ptr @proto_ircomm, align 4
  %5 = tail call ptr @register_dissector(ptr noundef nonnull @.str.14, ptr noundef nonnull @dissect_cooked_ircomm, i32 noundef %4)
  store ptr %5, ptr @ircomm_cooked_handle, align 8
  %6 = load i32, ptr @proto_ircomm, align 4
  tail call void @proto_register_field_array(i32 noundef %6, ptr noundef nonnull @proto_register_ircomm.hf_ircomm, i32 noundef 3)
  tail call void @proto_register_subtree_array(ptr noundef nonnull @proto_register_ircomm.ett, i32 noundef 2)
  br label %7

7:                                                ; preds = %0, %7
  %indvars.iv = phi i64 [ 0, %0 ], [ %indvars.iv.next, %7 ]
  %8 = getelementptr [1024 x i32], ptr @ett_param, i64 0, i64 %indvars.iv
  %9 = getelementptr [1024 x ptr], ptr %1, i64 0, i64 %indvars.iv
  store ptr %8, ptr %9, align 8
  %indvars.iv.next = add nuw nsw i64 %indvars.iv, 1
  %exitcond.not = icmp eq i64 %indvars.iv.next, 1024
  br i1 %exitcond.not, label %10, label %7, !llvm.loop !8

10:                                               ; preds = %7
  call void @proto_register_subtree_array(ptr noundef nonnull %1, i32 noundef 1024)
  call void @llvm.lifetime.end.p0(i64 8192, ptr nonnull %1) #4
  ret void
}